target datalayout = "e-m:e-p270:32:32-p271:32:32-p272:64:64-i64:64-i128:128-f80:128-n8:16:32:64-S128"
target triple = "x86_64-pc-linux-gnu"

%class.JvmtiEventEnabled = type { i64 }
%class.JvmtiEnvThreadEventEnable = type { %class.JvmtiEventEnabled, %class.JvmtiEventEnabled }
%class.JvmtiEnvEventEnable = type { %class.JvmtiEventEnabled, %class.JvmtiEventEnabled, %class.JvmtiEventEnabled }
%class.JvmtiEnvBase = type <{ %struct._jvmtiEnv, i32, i32, ptr, i8, [7 x i8], ptr, %struct.jvmtiEventCallbacks, %struct.jvmtiExtEventCallbacks, ptr, %class.JvmtiEnvEventEnable, %struct.jvmtiCapabilities, %struct.jvmtiCapabilities, i8, [7 x i8], ptr, i32, [4 x i8] }>
%struct._jvmtiEnv = type { ptr }
%struct.jvmtiEventCallbacks = type { ptr, ptr, ptr, ptr, ptr, ptr, ptr, ptr, ptr, ptr, ptr, ptr, ptr, ptr, ptr, ptr, ptr, ptr, ptr, ptr, ptr, ptr, ptr, ptr, ptr, ptr, ptr, ptr, ptr, ptr, ptr, ptr, ptr, ptr, ptr, ptr, ptr, ptr, ptr }
%struct.jvmtiExtEventCallbacks = type { ptr, ptr, ptr }
%struct.jvmtiCapabilities = type { i64, i64 }
%class.JvmtiEnvThreadState = type { ptr, ptr, ptr, ptr, i32, i8, i8, %class.JvmtiEnvThreadEventEnable, ptr, ptr }

@_ZN12JvmtiEnvBase6_phaseE = external global i32, align 4

; Function Attrs: mustprogress nounwind uwtable
define linkonce_odr hidden void @_ZN17JvmtiEventEnabled8set_bitsEl(ptr noundef nonnull align 8 dereferenceable(8) %0, i64 noundef %1) #1 comdat align 2 {
  %3 = alloca ptr, align 8
  %4 = alloca i64, align 8
  store ptr %0, ptr %3, align 8
  store i64 %1, ptr %4, align 8
  %5 = load ptr, ptr %3, align 8
  %6 = load i64, ptr %4, align 8
  %7 = getelementptr inbounds %class.JvmtiEventEnabled, ptr %5, i32 0, i32 0
  store i64 %6, ptr %7, align 8
  ret void
}

; Function Attrs: mustprogress nounwind uwtable
define linkonce_odr hidden noundef i32 @_ZN12JvmtiEnvBase9get_phaseEv() #1 comdat align 2 {
  %1 = load i32, ptr @_ZN12JvmtiEnvBase6_phaseE, align 4
  ret i32 %1
}

; Function Attrs: mustprogress nounwind uwtable
define linkonce_odr hidden noundef ptr @_ZN12JvmtiEnvBase16env_event_enableEv(ptr noundef nonnull align 8 dereferenceable(460) %0) #1 comdat align 2 {
  %2 = alloca ptr, align 8
  store ptr %0, ptr %2, align 8
  %3 = load ptr, ptr %2, align 8
  %4 = getelementptr inbounds %class.JvmtiEnvBase, ptr %3, i32 0, i32 10
  ret ptr %4
}

; Function Attrs: mustprogress nounwind uwtable
define linkonce_odr hidden noundef i64 @_ZN17JvmtiEventEnabled8get_bitsEv(ptr noundef nonnull align 8 dereferenceable(8) %0) #1 comdat align 2 {
  %2 = alloca ptr, align 8
  store ptr %0, ptr %2, align 8
  %3 = load ptr, ptr %2, align 8
  %4 = getelementptr inbounds %class.JvmtiEventEnabled, ptr %3, i32 0, i32 0
  %5 = load i64, ptr %4, align 8
  ret i64 %5
}

; Function Attrs: mustprogress nounwind uwtable
define linkonce_odr hidden noundef ptr @_ZN19JvmtiEnvThreadState12event_enableEv(ptr noundef nonnull align 8 dereferenceable(72) %0) #1 comdat align 2 {
  %2 = alloca ptr, align 8
  store ptr %0, ptr %2, align 8
  %3 = load ptr, ptr %2, align 8
  %4 = getelementptr inbounds %class.JvmtiEnvThreadState, ptr %3, i32 0, i32 7
  ret ptr %4
}

; Function Attrs: mustprogress nounwind uwtable
define linkonce_odr hidden noundef ptr @_ZN19JvmtiEnvThreadState7get_envEv(ptr noundef nonnull align 8 dereferenceable(72) %0) #1 comdat align 2 {
  %2 = alloca ptr, align 8
  store ptr %0, ptr %2, align 8
  %3 = load ptr, ptr %2, align 8
  %4 = getelementptr inbounds %class.JvmtiEnvThreadState, ptr %3, i32 0, i32 1
  %5 = load ptr, ptr %4, align 8
  ret ptr %5
}

; Function Attrs: mustprogress nounwind uwtable
define hidden noundef i64 @_ZN27JvmtiEventControllerPrivate28recompute_env_thread_enabledEP19JvmtiEnvThreadStateP16JvmtiThreadState(ptr noundef %0, ptr noundef %1) #1 align 2 {
  %3 = alloca ptr, align 8
  %4 = alloca ptr, align 8
  %5 = alloca ptr, align 8
  %6 = alloca i64, align 8
  %7 = alloca i64, align 8
  %8 = alloca i64, align 8
  store ptr %0, ptr %3, align 8
  store ptr %1, ptr %4, align 8
  %9 = load ptr, ptr %3, align 8
  %10 = call noundef ptr @_ZN19JvmtiEnvThreadState7get_envEv(ptr noundef nonnull align 8 dereferenceable(72) %9)
  store ptr %10, ptr %5, align 8
  %11 = load ptr, ptr %3, align 8
  %12 = call noundef ptr @_ZN19JvmtiEnvThreadState12event_enableEv(ptr noundef nonnull align 8 dereferenceable(72) %11)
  %13 = getelementptr inbounds %class.JvmtiEnvThreadEventEnable, ptr %12, i32 0, i32 1
  %14 = call noundef i64 @_ZN17JvmtiEventEnabled8get_bitsEv(ptr noundef nonnull align 8 dereferenceable(8) %13)
  store i64 %14, ptr %6, align 8
  %15 = load ptr, ptr %5, align 8
  %16 = call noundef ptr @_ZN12JvmtiEnvBase16env_event_enableEv(ptr noundef nonnull align 8 dereferenceable(460) %15)
  %17 = getelementptr inbounds %class.JvmtiEnvEventEnable, ptr %16, i32 0, i32 1
  %18 = call noundef i64 @_ZN17JvmtiEventEnabled8get_bitsEv(ptr noundef nonnull align 8 dereferenceable(8) %17)
  %19 = and i64 2749786749763, %18
  %20 = load ptr, ptr %5, align 8
  %21 = call noundef ptr @_ZN12JvmtiEnvBase16env_event_enableEv(ptr noundef nonnull align 8 dereferenceable(460) %20)
  %22 = getelementptr inbounds %class.JvmtiEnvEventEnable, ptr %21, i32 0, i32 0
  %23 = call noundef i64 @_ZN17JvmtiEventEnabled8get_bitsEv(ptr noundef nonnull align 8 dereferenceable(8) %22)
  %24 = load ptr, ptr %3, align 8
  %25 = call noundef ptr @_ZN19JvmtiEnvThreadState12event_enableEv(ptr noundef nonnull align 8 dereferenceable(72) %24)
  %26 = getelementptr inbounds %class.JvmtiEnvThreadEventEnable, ptr %25, i32 0, i32 0
  %27 = call noundef i64 @_ZN17JvmtiEventEnabled8get_bitsEv(ptr noundef nonnull align 8 dereferenceable(8) %26)
  %28 = or i64 %23, %27
  %29 = and i64 %19, %28
  store i64 %29, ptr %7, align 8
  %30 = load ptr, ptr %3, align 8
  %31 = call noundef zeroext i1 @_ZN19JvmtiEnvThreadState14has_frame_popsEv(ptr noundef nonnull align 8 dereferenceable(72) %30)
  br i1 %31, label %35, label %32

32:                                               ; preds = %2
  %33 = load i64, ptr %7, align 8
  %34 = and i64 %33, -16385
  store i64 %34, ptr %7, align 8
  br label %35

35:                                               ; preds = %32, %2
  %36 = call noundef ptr @_ZN11JvmtiExport27get_field_access_count_addrEv()
  %37 = load i32, ptr %36, align 4
  %38 = icmp eq i32 %37, 0
  br i1 %38, label %39, label %42

39:                                               ; preds = %35
  %40 = load i64, ptr %7, align 8
  %41 = and i64 %40, -65537
  store i64 %41, ptr %7, align 8
  br label %42

42:                                               ; preds = %39, %35
  %43 = call noundef ptr @_ZN11JvmtiExport33get_field_modification_count_addrEv()
  %44 = load i32, ptr %43, align 4
  %45 = icmp eq i32 %44, 0
  br i1 %45, label %46, label %49

46:                                               ; preds = %42
  %47 = load i64, ptr %7, align 8
  %48 = and i64 %47, -131073
  store i64 %48, ptr %7, align 8
  br label %49

49:                                               ; preds = %46, %42
  %50 = call noundef i32 @_ZN12JvmtiEnvBase9get_phaseEv()
  switch i32 %50, label %52 [
    i32 8, label %51
  ]

51:                                               ; preds = %49
  store i64 0, ptr %7, align 8
  br label %53

52:                                               ; preds = %49
  br label %53

53:                                               ; preds = %52, %51
  %54 = load i64, ptr %7, align 8
  %55 = load i64, ptr %6, align 8
  %56 = icmp ne i64 %54, %55
  br i1 %56, label %57, label %86

57:                                               ; preds = %53
  %58 = load ptr, ptr %3, align 8
  %59 = call noundef ptr @_ZN19JvmtiEnvThreadState12event_enableEv(ptr noundef nonnull align 8 dereferenceable(72) %58)
  %60 = getelementptr inbounds %class.JvmtiEnvThreadEventEnable, ptr %59, i32 0, i32 1
  %61 = load i64, ptr %7, align 8
  call void @_ZN17JvmtiEventEnabled8set_bitsEl(ptr noundef nonnull align 8 dereferenceable(8) %60, i64 noundef %61)
  %62 = load i64, ptr %7, align 8
  %63 = load i64, ptr %6, align 8
  %64 = xor i64 %62, %63
  store i64 %64, ptr %8, align 8
  %65 = load i64, ptr %8, align 8
  %66 = and i64 %65, 8192
  %67 = icmp ne i64 %66, 0
  br i1 %67, label %68, label %73

68:                                               ; preds = %57
  %69 = load ptr, ptr %3, align 8
  %70 = load i64, ptr %7, align 8
  %71 = and i64 %70, 8192
  %72 = icmp ne i64 %71, 0
  call void @_ZN19JvmtiEnvThreadState22reset_current_locationE10jvmtiEventb(ptr noundef nonnull align 8 dereferenceable(72) %69, i32 noundef 60, i1 noundef zeroext %72)
  br label %73

73:                                               ; preds = %68, %57
  %74 = load i64, ptr %8, align 8
  %75 = and i64 %74, 32768
  %76 = icmp ne i64 %75, 0
  br i1 %76, label %77, label %82

77:                                               ; preds = %73
  %78 = load ptr, ptr %3, align 8
  %79 = load i64, ptr %7, align 8
  %80 = and i64 %79, 32768
  %81 = icmp ne i64 %80, 0
  call void @_ZN19JvmtiEnvThreadState22reset_current_locationE10jvmtiEventb(ptr noundef nonnull align 8 dereferenceable(72) %78, i32 noundef 62, i1 noundef zeroext %81)
  br label %82

82:                                               ; preds = %77, %73
  %83 = load ptr, ptr %4, align 8
  %84 = load i64, ptr %7, align 8
  %85 = load i64, ptr %8, align 8
  call void @_ZN27JvmtiEventControllerPrivate13trace_changedEP16JvmtiThreadStatell(ptr noundef %83, i64 noundef %84, i64 noundef %85)
  br label %86

86:                                               ; preds = %82, %53
  %87 = load i64, ptr %7, align 8
  ret i64 %87
}