; Function Attrs: mustprogress nounwind uwtable
define hidden noundef range(i64 0, 2749786749764) i64 @_ZN27JvmtiEventControllerPrivate28recompute_env_thread_enabledEP19JvmtiEnvThreadStateP16JvmtiThreadState(ptr noundef nonnull %0, ptr nocapture noundef readonly %1) local_unnamed_addr #3 align 2 {
  %3 = getelementptr inbounds i8, ptr %0, i64 8
  %4 = load ptr, ptr %3, align 8
  %5 = getelementptr inbounds i8, ptr %0, i64 40
  %6 = getelementptr inbounds i8, ptr %0, i64 48
  %7 = load i64, ptr %6, align 8
  %8 = getelementptr inbounds i8, ptr %4, i64 384
  %9 = getelementptr inbounds i8, ptr %4, i64 392
  %10 = load i64, ptr %9, align 8
  %11 = and i64 %10, 2749786749763
  %12 = load i64, ptr %8, align 8
  %13 = load i64, ptr %5, align 8
  %14 = or i64 %13, %12
  %15 = and i64 %11, %14
  %16 = tail call noundef zeroext i1 @_ZN19JvmtiEnvThreadState14has_frame_popsEv(ptr noundef nonnull align 8 dereferenceable(72) %0) #15
  %17 = and i64 %15, 2749786733379
  %spec.select = select i1 %16, i64 %15, i64 %17
  %18 = tail call noundef ptr @_ZN11JvmtiExport27get_field_access_count_addrEv() #15
  %19 = load i32, ptr %18, align 4
  %20 = icmp eq i32 %19, 0
  %21 = and i64 %spec.select, 2749786684227
  %.1 = select i1 %20, i64 %21, i64 %spec.select
  %22 = tail call noundef ptr @_ZN11JvmtiExport33get_field_modification_count_addrEv() #15
  %23 = load i32, ptr %22, align 4
  %24 = icmp eq i32 %23, 0
  %25 = and i64 %.1, 2749786618691
  %.2 = select i1 %24, i64 %25, i64 %.1
  %26 = load i32, ptr @_ZN12JvmtiEnvBase6_phaseE, align 4
  %cond = icmp eq i32 %26, 8
  %.3 = select i1 %cond, i64 0, i64 %.2
  %.not = icmp eq i64 %.3, %7
  br i1 %.not, label %39, label %27

27:                                               ; preds = %2
  store i64 %.3, ptr %6, align 8
  %28 = xor i64 %.3, %7
  %29 = and i64 %28, 8192
  %.not25 = icmp eq i64 %29, 0
  br i1 %.not25, label %33, label %30

30:                                               ; preds = %27
  %31 = and i64 %.3, 8192
  %32 = icmp ne i64 %31, 0
  tail call void @_ZN19JvmtiEnvThreadState22reset_current_locationE10jvmtiEventb(ptr noundef nonnull align 8 dereferenceable(72) %0, i32 noundef 60, i1 noundef zeroext %32) #15
  br label %33

33:                                               ; preds = %30, %27
  %34 = and i64 %28, 32768
  %.not26 = icmp eq i64 %34, 0
  br i1 %.not26, label %38, label %35

35:                                               ; preds = %33
  %36 = and i64 %.3, 32768
  %37 = icmp ne i64 %36, 0
  tail call void @_ZN19JvmtiEnvThreadState22reset_current_locationE10jvmtiEventb(ptr noundef nonnull align 8 dereferenceable(72) %0, i32 noundef 62, i1 noundef zeroext %37) #15
  br label %38

38:                                               ; preds = %35, %33
  tail call void @_ZN27JvmtiEventControllerPrivate13trace_changedEP16JvmtiThreadStatell(ptr noundef %1, i64 noundef %.3, i64 noundef %28)
  br label %39

39:                                               ; preds = %38, %2
  ret i64 %.3
}